target datalayout = "e-m:e-p270:32:32-p271:32:32-p272:64:64-i64:64-i128:128-f80:128-n8:16:32:64-S128"
target triple = "x86_64-pc-linux-gnu"

%"struct.Luau::CodeGen::BuiltinImplResult" = type { i32, i32 }
%"struct.Luau::CodeGen::IrOp" = type { i32 }

; Function Attrs: mustprogress uwtable
define internal i64 @_ZN4Luau7CodeGenL22translateBuiltinTypeofERNS0_9IrBuilderEiiiNS0_4IrOpEi(ptr noundef nonnull align 8 dereferenceable(752) %0, i32 noundef %1, i32 noundef %2, i32 noundef %3, i32 %4, i32 noundef %5) #2 {
  %7 = alloca %"struct.Luau::CodeGen::BuiltinImplResult", align 4
  %8 = alloca %"struct.Luau::CodeGen::IrOp", align 4
  %9 = alloca ptr, align 8
  %10 = alloca i32, align 4
  %11 = alloca i32, align 4
  %12 = alloca i32, align 4
  %13 = alloca i32, align 4
  %14 = alloca %"struct.Luau::CodeGen::IrOp", align 4
  %15 = alloca %"struct.Luau::CodeGen::IrOp", align 4
  %16 = alloca %"struct.Luau::CodeGen::IrOp", align 4
  %17 = alloca %"struct.Luau::CodeGen::IrOp", align 4
  %18 = alloca %"struct.Luau::CodeGen::IrOp", align 4
  %19 = alloca %"struct.Luau::CodeGen::IrOp", align 4
  %20 = alloca %"struct.Luau::CodeGen::IrOp", align 4
  %21 = alloca %"struct.Luau::CodeGen::IrOp", align 4
  %22 = getelementptr inbounds nuw %"struct.Luau::CodeGen::IrOp", ptr %8, i32 0, i32 0
  store i32 %4, ptr %22, align 4
  store ptr %0, ptr %9, align 8, !tbaa !20
  store i32 %1, ptr %10, align 4, !tbaa !22
  store i32 %2, ptr %11, align 4, !tbaa !22
  store i32 %3, ptr %12, align 4, !tbaa !22
  store i32 %5, ptr %13, align 4, !tbaa !22
  %23 = load i32, ptr %10, align 4, !tbaa !22
  %24 = icmp slt i32 %23, 1
  br i1 %24, label %28, label %25

25:                                               ; preds = %6
  %26 = load i32, ptr %13, align 4, !tbaa !22
  %27 = icmp sgt i32 %26, 1
  br i1 %27, label %28, label %31

28:                                               ; preds = %25, %6
  %29 = getelementptr inbounds nuw %"struct.Luau::CodeGen::BuiltinImplResult", ptr %7, i32 0, i32 0
  store i32 0, ptr %29, align 4, !tbaa !24
  %30 = getelementptr inbounds nuw %"struct.Luau::CodeGen::BuiltinImplResult", ptr %7, i32 0, i32 1
  store i32 -1, ptr %30, align 4, !tbaa !27
  br label %71

31:                                               ; preds = %25
  call void @llvm.lifetime.start.p0(i64 4, ptr %14) #11
  %32 = load ptr, ptr %9, align 8, !tbaa !20
  %33 = load ptr, ptr %9, align 8, !tbaa !20
  %34 = load i32, ptr %12, align 4, !tbaa !22
  %35 = trunc i32 %34 to i8
  %36 = call i32 @_ZN4Luau7CodeGen9IrBuilder5vmRegEh(ptr noundef nonnull align 8 dereferenceable(752) %33, i8 noundef zeroext %35)
  %37 = getelementptr inbounds nuw %"struct.Luau::CodeGen::IrOp", ptr %15, i32 0, i32 0
  store i32 %36, ptr %37, align 4
  %38 = getelementptr inbounds nuw %"struct.Luau::CodeGen::IrOp", ptr %15, i32 0, i32 0
  %39 = load i32, ptr %38, align 4
  %40 = call i32 @_ZN4Luau7CodeGen9IrBuilder4instENS0_5IrCmdENS0_4IrOpE(ptr noundef nonnull align 8 dereferenceable(752) %32, i8 noundef zeroext -123, i32 %39)
  %41 = getelementptr inbounds nuw %"struct.Luau::CodeGen::IrOp", ptr %14, i32 0, i32 0
  store i32 %40, ptr %41, align 4
  %42 = load ptr, ptr %9, align 8, !tbaa !20
  %43 = load ptr, ptr %9, align 8, !tbaa !20
  %44 = load i32, ptr %11, align 4, !tbaa !22
  %45 = trunc i32 %44 to i8
  %46 = call i32 @_ZN4Luau7CodeGen9IrBuilder5vmRegEh(ptr noundef nonnull align 8 dereferenceable(752) %43, i8 noundef zeroext %45)
  %47 = getelementptr inbounds nuw %"struct.Luau::CodeGen::IrOp", ptr %16, i32 0, i32 0
  store i32 %46, ptr %47, align 4
  call void @llvm.memcpy.p0.p0.i64(ptr align 4 %17, ptr align 4 %14, i64 4, i1 false), !tbaa.struct !28
  %48 = getelementptr inbounds nuw %"struct.Luau::CodeGen::IrOp", ptr %16, i32 0, i32 0
  %49 = load i32, ptr %48, align 4
  %50 = getelementptr inbounds nuw %"struct.Luau::CodeGen::IrOp", ptr %17, i32 0, i32 0
  %51 = load i32, ptr %50, align 4
  %52 = call i32 @_ZN4Luau7CodeGen9IrBuilder4instENS0_5IrCmdENS0_4IrOpES3_(ptr noundef nonnull align 8 dereferenceable(752) %42, i8 noundef zeroext 14, i32 %49, i32 %51)
  %53 = getelementptr inbounds nuw %"struct.Luau::CodeGen::IrOp", ptr %18, i32 0, i32 0
  store i32 %52, ptr %53, align 4
  %54 = load ptr, ptr %9, align 8, !tbaa !20
  %55 = load ptr, ptr %9, align 8, !tbaa !20
  %56 = load i32, ptr %11, align 4, !tbaa !22
  %57 = trunc i32 %56 to i8
  %58 = call i32 @_ZN4Luau7CodeGen9IrBuilder5vmRegEh(ptr noundef nonnull align 8 dereferenceable(752) %55, i8 noundef zeroext %57)
  %59 = getelementptr inbounds nuw %"struct.Luau::CodeGen::IrOp", ptr %19, i32 0, i32 0
  store i32 %58, ptr %59, align 4
  %60 = load ptr, ptr %9, align 8, !tbaa !20
  %61 = call i32 @_ZN4Luau7CodeGen9IrBuilder8constTagEh(ptr noundef nonnull align 8 dereferenceable(752) %60, i8 noundef zeroext 5)
  %62 = getelementptr inbounds nuw %"struct.Luau::CodeGen::IrOp", ptr %20, i32 0, i32 0
  store i32 %61, ptr %62, align 4
  %63 = getelementptr inbounds nuw %"struct.Luau::CodeGen::IrOp", ptr %19, i32 0, i32 0
  %64 = load i32, ptr %63, align 4
  %65 = getelementptr inbounds nuw %"struct.Luau::CodeGen::IrOp", ptr %20, i32 0, i32 0
  %66 = load i32, ptr %65, align 4
  %67 = call i32 @_ZN4Luau7CodeGen9IrBuilder4instENS0_5IrCmdENS0_4IrOpES3_(ptr noundef nonnull align 8 dereferenceable(752) %54, i8 noundef zeroext 12, i32 %64, i32 %66)
  %68 = getelementptr inbounds nuw %"struct.Luau::CodeGen::IrOp", ptr %21, i32 0, i32 0
  store i32 %67, ptr %68, align 4
  %69 = getelementptr inbounds nuw %"struct.Luau::CodeGen::BuiltinImplResult", ptr %7, i32 0, i32 0
  store i32 2, ptr %69, align 4, !tbaa !24
  %70 = getelementptr inbounds nuw %"struct.Luau::CodeGen::BuiltinImplResult", ptr %7, i32 0, i32 1
  store i32 1, ptr %70, align 4, !tbaa !27
  call void @llvm.lifetime.end.p0(i64 4, ptr %14) #11
  br label %71

71:                                               ; preds = %31, %28
  %72 = load i64, ptr %7, align 4
  ret i64 %72
}